(lp0
(i__main__
player
p1
(dp2
S'kills'
p3
F25.0
sS'deaths'
p4
I6
sS'class_played'
p5
S'Soldier'
p6
sS'damagetaken'
p7
F7034.0
sS'damage'
p8
F8377.0
sS'caps'
p9
F5.0
sS'assists'
p10
F10.0
sS'damagepm'
p11
F284.0
sS'team'
p12
VRed
p13
sS'damagetakenpm'
p14
F238.0
sba(i__main__
player
p15
(dp16
g3
F4.0
sg4
I16
sg5
S'Medic'
p17
sg7
F5062.0
sg8
F909.0
sg9
F3.0
sg10
F29.0
sg11
F30.0
sg12
VRed
p18
sg14
F171.0
sba(i__main__
player
p19
(dp20
g3
F19.0
sg4
I15
sg5
S'Soldier'
p21
sg7
F10965.0
sg8
F7271.0
sg9
F5.0
sg10
F4.0
sg11
F245.0
sg12
VRed
p22
sg14
F370.0
sba(i__main__
player
p23
(dp24
g3
F22.0
sg4
I15
sg5
S'Soldier'
p25
sg7
F9733.0
sg8
F9009.0
sg9
F4.0
sg10
F5.0
sg11
F303.0
sg12
VRed
p26
sg14
F327.0
sba(i__main__
player
p27
(dp28
g3
F2.0
sg4
I14
sg5
S'Medic'
p29
sg7
F4759.0
sg8
F215.0
sg9
F5.0
sg10
F13.0
sg11
F7.0
sg12
VRed
p30
sg14
F160.0
sba(i__main__
player
p31
(dp32
g3
F28.0
sg4
I10
sg5
S'Soldier'
p33
sg7
F7280.0
sg8
F6059.0
sg9
F14.0
sg10
F4.0
sg11
F242.0
sg12
VRed
p34
sg14
F291.0
sba(i__main__
player
p35
(dp36
g3
F33.0
sg4
I15
sg5
S'Soldier'
p37
sg7
F8851.0
sg8
F9218.0
sg9
F7.0
sg10
F12.0
sg11
F309.0
sg12
VRed
p38
sg14
F297.0
sba(i__main__
player
p39
(dp40
g3
F23.0
sg4
I16
sg5
S'Soldier'
p41
sg7
F10806.0
sg8
F9877.0
sg9
F4.0
sg10
F8.0
sg11
F334.0
sg12
VBlu
p42
sg14
F366.0
sba(i__main__
player
p43
(dp44
g3
F20.0
sg4
I12
sg5
S'Soldier'
p45
sg7
F9743.0
sg8
F8242.0
sg9
F2.0
sg10
F8.0
sg11
F267.0
sg12
VBlu
p46
sg14
F316.0
sba(i__main__
player
p47
(dp48
g3
F22.0
sg4
I16
sg5
S'Soldier'
p49
sg7
F8474.0
sg8
F6347.0
sg9
F3.0
sg10
F5.0
sg11
F209.0
sg12
VRed
p50
sg14
F279.0
sba(i__main__
player
p51
(dp52
g3
F23.0
sg4
I13
sg5
S'Soldier'
p53
sg7
F8059.0
sg8
F7312.0
sg9
F5.0
sg10
F12.0
sg11
F245.0
sg12
VRed
p54
sg14
F270.0
sba(i__main__
player
p55
(dp56
g3
F2.0
sg4
I14
sg5
S'Medic'
p57
sg7
F5041.0
sg8
F567.0
sg9
F6.0
sg10
F15.0
sg11
F19.0
sg12
VRed
p58
sg14
F170.0
sba(i__main__
player
p59
(dp60
g3
F25.0
sg4
I18
sg5
S'Soldier'
p61
sg7
F8737.0
sg8
F8867.0
sg9
F9.0
sg10
F9.0
sg11
F301.0
sg12
VRed
p62
sg14
F297.0
sba(i__main__
player
p63
(dp64
g3
F1.0
sg4
I1
sg5
S'Scout'
p65
sg7
F191.0
sg8
F15.0
sg9
F0.0
sg10
F0.0
sg11
F15.0
sg12
VBlu
p66
sg14
F201.0
sba(i__main__
player
p67
(dp68
g3
F21.0
sg4
I12
sg5
S'Scout'
p69
sg7
F3072.0
sg8
F4869.0
sg9
F7.0
sg10
F4.0
sg11
F253.0
sg12
VRed
p70
sg14
F159.0
sba(i__main__
player
p71
(dp72
g3
F15.0
sg4
I15
sg5
S'Soldier'
p73
sg7
F7808.0
sg8
F6032.0
sg9
F7.0
sg10
F12.0
sg11
F200.0
sg12
VBlu
p74
sg14
F259.0
sba(i__main__
player
p75
(dp76
g3
F18.0
sg4
I24
sg5
S'Soldier'
p77
sg7
F9246.0
sg8
F7001.0
sg9
F3.0
sg10
F8.0
sg11
F240.0
sg12
VRed
p78
sg14
F317.0
sba(i__main__
player
p79
(dp80
g3
F15.0
sg4
I18
sg5
S'Scout'
p81
sg7
F4215.0
sg8
F4560.0
sg9
F10.0
sg10
F8.0
sg11
F187.0
sg12
VBlu
p82
sg14
F173.0
sba(i__main__
player
p83
(dp84
g3
F27.0
sg4
I16
sg5
S'Soldier'
p85
sg7
F12610.0
sg8
F13047.0
sg9
F4.0
sg10
F8.0
sg11
F435.0
sg12
VRed
p86
sg14
F421.0
sba(i__main__
player
p87
(dp88
g3
F28.0
sg4
I24
sg5
S'Scout'
p89
sg7
F5205.0
sg8
F6979.0
sg9
F8.0
sg10
F14.0
sg11
F236.0
sg12
VRed
p90
sg14
F176.0
sba(i__main__
player
p91
(dp92
g3
F16.0
sg4
I16
sg5
S'Soldier'
p93
sg7
F10122.0
sg8
F8447.0
sg9
F3.0
sg10
F4.0
sg11
F284.0
sg12
VBlu
p94
sg14
F341.0
sba(i__main__
player
p95
(dp96
g3
F23.0
sg4
I14
sg5
S'Soldier'
p97
sg7
F11093.0
sg8
F10468.0
sg9
F3.0
sg10
F8.0
sg11
F350.0
sg12
VRed
p98
sg14
F371.0
sba(i__main__
player
p99
(dp100
g3
F30.0
sg4
I14
sg5
S'Soldier'
p101
sg7
F9706.0
sg8
F9240.0
sg9
F7.0
sg10
F11.0
sg11
F311.0
sg12
VRed
p102
sg14
F327.0
sba(i__main__
player
p103
(dp104
g3
F12.0
sg4
I24
sg5
S'Scout'
p105
sg7
F5126.0
sg8
F4657.0
sg9
F6.0
sg10
F8.0
sg11
F158.0
sg12
VRed
p106
sg14
F174.0
sba(i__main__
player
p107
(dp108
g3
F21.0
sg4
I15
sg5
S'Scout'
p109
sg7
F5854.0
sg8
F5954.0
sg9
F9.0
sg10
F12.0
sg11
F200.0
sg12
VBlu
p110
sg14
F197.0
sba(i__main__
player
p111
(dp112
g3
F31.0
sg4
I23
sg5
S'Scout'
p113
sg7
F5975.0
sg8
F7473.0
sg9
F7.0
sg10
F12.0
sg11
F252.0
sg12
VRed
p114
sg14
F202.0
sba(i__main__
player
p115
(dp116
g3
F23.0
sg4
I16
sg5
S'Soldier'
p117
sg7
F10587.0
sg8
F9037.0
sg9
F3.0
sg10
F9.0
sg11
F307.0
sg12
VRed
p118
sg14
F359.0
sba(i__main__
player
p119
(dp120
g3
F28.0
sg4
I16
sg5
S'Soldier'
p121
sg7
F7756.0
sg8
F8472.0
sg9
F4.0
sg10
F15.0
sg11
F287.0
sg12
VBlu
p122
sg14
F263.0
sba(i__main__
player
p123
(dp124
g3
F1.0
sg4
I7
sg5
S'Medic'
p125
sg7
F3102.0
sg8
F204.0
sg9
F9.0
sg10
F27.0
sg11
F6.0
sg12
VBlu
p126
sg14
F104.0
sba(i__main__
player
p127
(dp128
g3
F20.0
sg4
I21
sg5
S'Scout'
p129
sg7
F4718.0
sg8
F5353.0
sg9
F5.0
sg10
F5.0
sg11
F181.0
sg12
VBlu
p130
sg14
F159.0
sba(i__main__
player
p131
(dp132
g3
F23.0
sg4
I23
sg5
S'Scout'
p133
sg7
F5836.0
sg8
F5889.0
sg9
F7.0
sg10
F9.0
sg11
F198.0
sg12
VBlu
p134
sg14
F196.0
sba(i__main__
player
p135
(dp136
g3
F24.0
sg4
I22
sg5
S'Demoman'
p137
sg7
F7392.0
sg8
F8967.0
sg9
F9.0
sg10
F6.0
sg11
F305.0
sg12
VRed
p138
sg14
F251.0
sba(i__main__
player
p139
(dp140
g3
F26.0
sg4
I29
sg5
S'Scout'
p141
sg7
F5536.0
sg8
F6557.0
sg9
F5.0
sg10
F4.0
sg11
F221.0
sg12
VRed
p142
sg14
F187.0
sba(i__main__
player
p143
(dp144
g3
F29.0
sg4
I28
sg5
S'Scout'
p145
sg7
F5873.0
sg8
F6536.0
sg9
F4.0
sg10
F5.0
sg11
F220.0
sg12
VBlu
p146
sg14
F198.0
sba(i__main__
player
p147
(dp148
g3
F27.0
sg4
I19
sg5
S'Soldier'
p149
sg7
F11246.0
sg8
F9869.0
sg9
F5.0
sg10
F11.0
sg11
F338.0
sg12
VRed
p150
sg14
F386.0
sba(i__main__
player
p151
(dp152
g3
F38.0
sg4
I2
sg5
S'Demoman'
p153
sg7
F0.0
sg8
F23.0
sg9
F0.0
sg10
F8.0
sg11
F19.0
sg12
VRed
p154
sg14
F0.0
sba(i__main__
player
p155
(dp156
g3
F4.0
sg4
I15
sg5
S'Medic'
p157
sg7
F4553.0
sg8
F570.0
sg9
F4.0
sg10
F10.0
sg11
F19.0
sg12
VBlu
p158
sg14
F154.0
sba(i__main__
player
p159
(dp160
g3
F18.0
sg4
I16
sg5
S'Soldier'
p161
sg7
F10325.0
sg8
F8470.0
sg9
F2.0
sg10
F6.0
sg11
F287.0
sg12
VRed
p162
sg14
F350.0
sba(i__main__
player
p163
(dp164
g3
F19.0
sg4
I29
sg5
S'Scout'
p165
sg7
F5904.0
sg8
F5710.0
sg9
F11.0
sg10
F9.0
sg11
F194.0
sg12
VRed
p166
sg14
F201.0
sba(i__main__
player
p167
(dp168
g3
F22.0
sg4
I5
sg5
S'Soldier'
p169
sg7
F4144.0
sg8
F5121.0
sg9
F11.0
sg10
F10.0
sg11
F300.0
sg12
VRed
p170
sg14
F243.0
sba(i__main__
player
p171
(dp172
g3
F19.0
sg4
I22
sg5
S'Scout'
p173
sg7
F5109.0
sg8
F4335.0
sg9
F2.0
sg10
F7.0
sg11
F203.0
sg12
VBlu
p174
sg14
F240.0
sba(i__main__
player
p175
(dp176
g3
F29.0
sg4
I29
sg5
S'Scout'
p177
sg7
F5849.0
sg8
F7135.0
sg9
F9.0
sg10
F8.0
sg11
F240.0
sg12
VBlu
p178
sg14
F197.0
sba(i__main__
player
p179
(dp180
g3
F17.0
sg4
I26
sg5
S'Soldier'
p181
sg7
F9023.0
sg8
F8651.0
sg9
F1.0
sg10
F4.0
sg11
F306.0
sg12
VBlu
p182
sg14
F319.0
sba(i__main__
player
p183
(dp184
g3
F19.0
sg4
I18
sg5
S'Scout'
p185
sg7
F4598.0
sg8
F5916.0
sg9
F4.0
sg10
F7.0
sg11
F199.0
sg12
VRed
p186
sg14
F155.0
sba(i__main__
player
p187
(dp188
g3
F18.0
sg4
I14
sg5
S'Medic'
p189
sg7
F6817.0
sg8
F4022.0
sg9
F4.0
sg10
F14.0
sg11
F134.0
sg12
VRed
p190
sg14
F228.0
sba(i__main__
player
p191
(dp192
g3
F21.0
sg4
I26
sg5
S'Scout'
p193
sg7
F5677.0
sg8
F7143.0
sg9
F2.0
sg10
F8.0
sg11
F243.0
sg12
VBlu
p194
sg14
F193.0
sba(i__main__
player
p195
(dp196
g3
F25.0
sg4
I15
sg5
S'Soldier'
p197
sg7
F8737.0
sg8
F8518.0
sg9
F8.0
sg10
F7.0
sg11
F290.0
sg12
VRed
p198
sg14
F298.0
sba(i__main__
player
p199
(dp200
g3
F10.0
sg4
I2
sg5
S'Soldier'
p201
sg7
F2108.0
sg8
F2810.0
sg9
F7.0
sg10
F10.0
sg11
F280.0
sg12
VBlu
p202
sg14
F210.0
sba(i__main__
player
p203
(dp204
g3
F0.0
sg4
I15
sg5
S'Medic'
p205
sg7
F5272.0
sg8
F182.0
sg9
F6.0
sg10
F24.0
sg11
F6.0
sg12
VBlu
p206
sg14
F177.0
sba(i__main__
player
p207
(dp208
g3
F1.0
sg4
I6
sg5
S'Medic'
p209
sg7
F3366.0
sg8
F438.0
sg9
F8.0
sg10
F14.0
sg11
F14.0
sg12
VRed
p210
sg14
F114.0
sba(i__main__
player
p211
(dp212
g3
F3.0
sg4
I9
sg5
S'Medic'
p213
sg7
F3637.0
sg8
F794.0
sg9
F12.0
sg10
F18.0
sg11
F34.0
sg12
VRed
p214
sg14
F158.0
sba(i__main__
player
p215
(dp216
g3
F15.0
sg4
I7
sg5
S'Scout'
p217
sg7
F3601.0
sg8
F3930.0
sg9
F13.0
sg10
F9.0
sg11
F227.0
sg12
VBlu
p218
sg14
F208.0
sba(i__main__
player
p219
(dp220
g3
F11.0
sg4
I11
sg5
S'Soldier'
p221
sg7
F8245.0
sg8
F8531.0
sg9
F7.0
sg10
F15.0
sg11
F285.0
sg12
VBlu
p222
sg14
F275.0
sba(i__main__
player
p223
(dp224
g3
F1.0
sg4
I16
sg5
S'Medic'
p225
sg7
F4882.0
sg8
F414.0
sg9
F3.0
sg10
F10.0
sg11
F13.0
sg12
VBlu
p226
sg14
F164.0
sba(i__main__
player
p227
(dp228
g3
F28.0
sg4
I30
sg5
S'Scout'
p229
sg7
F6804.0
sg8
F6900.0
sg9
F2.0
sg10
F6.0
sg11
F233.0
sg12
VBlu
p230
sg14
F230.0
sba(i__main__
player
p231
(dp232
g3
F24.0
sg4
I22
sg5
S'Scout'
p233
sg7
F4473.0
sg8
F5816.0
sg9
F7.0
sg10
F10.0
sg11
F197.0
sg12
VRed
p234
sg14
F152.0
sba(i__main__
player
p235
(dp236
g3
F17.0
sg4
I22
sg5
S'Scout'
p237
sg7
F6091.0
sg8
F4853.0
sg9
F9.0
sg10
F16.0
sg11
F164.0
sg12
VBlu
p238
sg14
F206.0
sba(i__main__
player
p239
(dp240
g3
F21.0
sg4
I16
sg5
S'Scout'
p241
sg7
F3608.0
sg8
F5249.0
sg9
F9.0
sg10
F12.0
sg11
F260.0
sg12
VBlu
p242
sg14
F179.0
sba(i__main__
player
p243
(dp244
g3
F22.0
sg4
I21
sg5
S'Soldier'
p245
sg7
F6810.0
sg8
F6749.0
sg9
F9.0
sg10
F7.0
sg11
F228.0
sg12
VBlu
p246
sg14
F230.0
sba(i__main__
player
p247
(dp248
g3
F25.0
sg4
I14
sg5
S'Scout'
p249
sg7
F4095.0
sg8
F6254.0
sg9
F10.0
sg10
F10.0
sg11
F254.0
sg12
VRed
p250
sg14
F166.0
sba(i__main__
player
p251
(dp252
g3
F2.0
sg4
I13
sg5
S'Medic'
p253
sg7
F3756.0
sg8
F304.0
sg9
F6.0
sg10
F30.0
sg11
F10.0
sg12
VRed
p254
sg14
F127.0
sba(i__main__
player
p255
(dp256
g3
F24.0
sg4
I13
sg5
S'Soldier'
p257
sg7
F9919.0
sg8
F8336.0
sg9
F3.0
sg10
F4.0
sg11
F283.0
sg12
VRed
p258
sg14
F337.0
sba(i__main__
player
p259
(dp260
g3
F15.0
sg4
I25
sg5
S'Soldier'
p261
sg7
F7037.0
sg8
F7082.0
sg9
F4.0
sg10
F5.0
sg11
F238.0
sg12
VBlu
p262
sg14
F237.0
sba(i__main__
player
p263
(dp264
g3
F40.0
sg4
I12
sg5
S'Soldier'
p265
sg7
F11403.0
sg8
F10545.0
sg9
F7.0
sg10
F18.0
sg11
F356.0
sg12
VBlu
p266
sg14
F385.0
sba(i__main__
player
p267
(dp268
g3
F0.0
sg4
I11
sg5
S'Medic'
p269
sg7
F4407.0
sg8
F109.0
sg9
F3.0
sg10
F19.0
sg11
F3.0
sg12
VRed
p270
sg14
F151.0
sba(i__main__
player
p271
(dp272
g3
F6.0
sg4
I5
sg5
S'Soldier'
p273
sg7
F2611.0
sg8
F1969.0
sg9
F0.0
sg10
F2.0
sg11
F100.0
sg12
VRed
p274
sg14
F132.0
sba(i__main__
player
p275
(dp276
g3
F18.0
sg4
I18
sg5
S'Soldier'
p277
sg7
F9252.0
sg8
F7864.0
sg9
F3.0
sg10
F5.0
sg11
F264.0
sg12
VBlu
p278
sg14
F311.0
sba(i__main__
player
p279
(dp280
g3
F25.0
sg4
I28
sg5
S'Scout'
p281
sg7
F6008.0
sg8
F6527.0
sg9
F2.0
sg10
F10.0
sg11
F219.0
sg12
VRed
p282
sg14
F202.0
sba(i__main__
player
p283
(dp284
g3
F31.0
sg4
I16
sg5
S'Soldier'
p285
sg7
F9597.0
sg8
F8431.0
sg9
F6.0
sg10
F14.0
sg11
F287.0
sg12
VBlu
p286
sg14
F327.0
sba(i__main__
player
p287
(dp288
g3
F28.0
sg4
I19
sg5
S'Soldier'
p289
sg7
F9267.0
sg8
F9647.0
sg9
F6.0
sg10
F13.0
sg11
F324.0
sg12
VBlu
p290
sg14
F312.0
sba(i__main__
player
p291
(dp292
g3
F3.0
sg4
I1
sg5
S'Demoman'
p293
sg7
F0.0
sg8
F3.0
sg9
F0.0
sg10
F0.0
sg11
F3.0
sg12
VRed
p294
sg14
F0.0
sba(i__main__
player
p295
(dp296
g3
F21.0
sg4
I27
sg5
S'Scout'
p297
sg7
F7097.0
sg8
F4609.0
sg9
F1.0
sg10
F11.0
sg11
F155.0
sg12
VBlu
p298
sg14
F238.0
sba(i__main__
player
p299
(dp300
g3
F15.0
sg4
I23
sg5
S'Soldier'
p301
sg7
F6820.0
sg8
F5712.0
sg9
F2.0
sg10
F5.0
sg11
F193.0
sg12
VBlu
p302
sg14
F230.0
sba(i__main__
player
p303
(dp304
g3
F2.0
sg4
I10
sg5
S'Medic'
p305
sg7
F4378.0
sg8
F130.0
sg9
F11.0
sg10
F29.0
sg11
F4.0
sg12
VBlu
p306
sg14
F146.0
sba(i__main__
player
p307
(dp308
g3
F28.0
sg4
I27
sg5
S'Soldier'
p309
sg7
F7823.0
sg8
F7654.0
sg9
F4.0
sg10
F9.0
sg11
F257.0
sg12
VBlu
p310
sg14
F263.0
sba(i__main__
player
p311
(dp312
g3
F30.0
sg4
I8
sg5
S'Soldier'
p313
sg7
F4971.0
sg8
F7122.0
sg9
F6.0
sg10
F16.0
sg11
F357.0
sg12
VRed
p314
sg14
F249.0
sba(i__main__
player
p315
(dp316
g3
F23.0
sg4
I21
sg5
S'Soldier'
p317
sg7
F7935.0
sg8
F8589.0
sg9
F6.0
sg10
F8.0
sg11
F292.0
sg12
VRed
p318
sg14
F270.0
sba(i__main__
player
p319
(dp320
g3
F23.0
sg4
I25
sg5
S'Scout'
p321
sg7
F6214.0
sg8
F6317.0
sg9
F6.0
sg10
F3.0
sg11
F212.0
sg12
VRed
p322
sg14
F208.0
sba(i__main__
player
p323
(dp324
g3
F22.0
sg4
I10
sg5
S'Soldier'
p325
sg7
F7910.0
sg8
F7567.0
sg9
F5.0
sg10
F5.0
sg11
F258.0
sg12
VBlu
p326
sg14
F269.0
sba(i__main__
player
p327
(dp328
g3
F29.0
sg4
I19
sg5
S'Soldier'
p329
sg7
F7586.0
sg8
F8951.0
sg9
F10.0
sg10
F11.0
sg11
F305.0
sg12
VRed
p330
sg14
F258.0
sba(i__main__
player
p331
(dp332
g3
F14.0
sg4
I15
sg5
S'Soldier'
p333
sg7
F7491.0
sg8
F5432.0
sg9
F11.0
sg10
F11.0
sg11
F185.0
sg12
VBlu
p334
sg14
F255.0
sba(i__main__
player
p335
(dp336
g3
F30.0
sg4
I12
sg5
S'Soldier'
p337
sg7
F9699.0
sg8
F8586.0
sg9
F6.0
sg10
F8.0
sg11
F323.0
sg12
VRed
p338
sg14
F365.0
sba(i__main__
player
p339
(dp340
g3
F0.0
sg4
I9
sg5
S'Medic'
p341
sg7
F4541.0
sg8
F163.0
sg9
F4.0
sg10
F14.0
sg11
F5.0
sg12
VBlu
p342
sg14
F154.0
sba(i__main__
player
p343
(dp344
g3
F2.0
sg4
I13
sg5
S'Medic'
p345
sg7
F5168.0
sg8
F155.0
sg9
F12.0
sg10
F28.0
sg11
F5.0
sg12
VRed
p346
sg14
F174.0
sba(i__main__
player
p347
(dp348
g3
F32.0
sg4
I30
sg5
S'Scout'
p349
sg7
F6579.0
sg8
F7786.0
sg9
F3.0
sg10
F10.0
sg11
F263.0
sg12
VRed
p350
sg14
F222.0
sba(i__main__
player
p351
(dp352
g3
F18.0
sg4
I14
sg5
S'Soldier'
p353
sg7
F6707.0
sg8
F7352.0
sg9
F4.0
sg10
F14.0
sg11
F245.0
sg12
VBlu
p354
sg14
F224.0
sba(i__main__
player
p355
(dp356
g3
F25.0
sg4
I23
sg5
S'Soldier'
p357
sg7
F6734.0
sg8
F6928.0
sg9
F7.0
sg10
F4.0
sg11
F235.0
sg12
VRed
p358
sg14
F229.0
sba(i__main__
player
p359
(dp360
g3
F18.0
sg4
I19
sg5
S'Demoman'
p361
sg7
F6405.0
sg8
F5095.0
sg9
F4.0
sg10
F4.0
sg11
F171.0
sg12
VBlu
p362
sg14
F215.0
sba(i__main__
player
p363
(dp364
g3
F0.0
sg4
I8
sg5
S'Medic'
p365
sg7
F4063.0
sg8
F368.0
sg9
F5.0
sg10
F24.0
sg11
F12.0
sg12
VBlu
p366
sg14
F137.0
sba(i__main__
player
p367
(dp368
g3
F1.0
sg4
I13
sg5
S'Medic'
p369
sg7
F4320.0
sg8
F317.0
sg9
F4.0
sg10
F10.0
sg11
F16.0
sg12
VRed
p370
sg14
F224.0
sba(i__main__
player
p371
(dp372
g3
F12.0
sg4
I18
sg5
S'Medic'
p373
sg7
F5198.0
sg8
F3581.0
sg9
F3.0
sg10
F22.0
sg11
F122.0
sg12
VRed
p374
sg14
F177.0
sba(i__main__
player
p375
(dp376
g3
F18.0
sg4
I23
sg5
S'Soldier'
p377
sg7
F6687.0
sg8
F7289.0
sg9
F7.0
sg10
F8.0
sg11
F244.0
sg12
VRed
p378
sg14
F224.0
sba(i__main__
player
p379
(dp380
g3
F5.0
sg4
I13
sg5
S'Medic'
p381
sg7
F3784.0
sg8
F1399.0
sg9
F2.0
sg10
F9.0
sg11
F85.0
sg12
VRed
p382
sg14
F230.0
sba(i__main__
player
p383
(dp384
g3
F14.0
sg4
I23
sg5
S'Soldier'
p385
sg7
F7946.0
sg8
F7979.0
sg9
F6.0
sg10
F7.0
sg11
F270.0
sg12
VRed
p386
sg14
F269.0
sba(i__main__
player
p387
(dp388
g3
F22.0
sg4
I22
sg5
S'Scout'
p389
sg7
F6372.0
sg8
F6861.0
sg9
F5.0
sg10
F10.0
sg11
F232.0
sg12
VRed
p390
sg14
F216.0
sba(i__main__
player
p391
(dp392
g3
F2.0
sg4
I9
sg5
S'Medic'
p393
sg7
F3812.0
sg8
F517.0
sg9
F4.0
sg10
F11.0
sg11
F17.0
sg12
VBlu
p394
sg14
F128.0
sba(i__main__
player
p395
(dp396
g3
F21.0
sg4
I14
sg5
S'Soldier'
p397
sg7
F8404.0
sg8
F6826.0
sg9
F4.0
sg10
F4.0
sg11
F228.0
sg12
VRed
p398
sg14
F281.0
sba(i__main__
player
p399
(dp400
g3
F29.0
sg4
I16
sg5
S'Scout'
p401
sg7
F4782.0
sg8
F6832.0
sg9
F8.0
sg10
F10.0
sg11
F233.0
sg12
VBlu
p402
sg14
F163.0
sba(i__main__
player
p403
(dp404
g3
F33.0
sg4
I22
sg5
S'Scout'
p405
sg7
F5715.0
sg8
F8295.0
sg9
F8.0
sg10
F5.0
sg11
F281.0
sg12
VRed
p406
sg14
F193.0
sba(i__main__
player
p407
(dp408
g3
F0.0
sg4
I9
sg5
S'Medic'
p409
sg7
F4130.0
sg8
F117.0
sg9
F4.0
sg10
F25.0
sg11
F3.0
sg12
VRed
p410
sg14
F139.0
sba(i__main__
player
p411
(dp412
g3
F29.0
sg4
I20
sg5
S'Soldier'
p413
sg7
F11039.0
sg8
F8386.0
sg9
F0.0
sg10
F10.0
sg11
F283.0
sg12
VBlu
p414
sg14
F372.0
sba(i__main__
player
p415
(dp416
g3
F24.0
sg4
I23
sg5
S'Scout'
p417
sg7
F5009.0
sg8
F6364.0
sg9
F9.0
sg10
F11.0
sg11
F214.0
sg12
VBlu
p418
sg14
F168.0
sba(i__main__
player
p419
(dp420
g3
F3.0
sg4
I15
sg5
S'Medic'
p421
sg7
F4548.0
sg8
F454.0
sg9
F5.0
sg10
F20.0
sg11
F15.0
sg12
VBlu
p422
sg14
F153.0
sba(i__main__
player
p423
(dp424
g3
F23.0
sg4
I29
sg5
S'Scout'
p425
sg7
F6791.0
sg8
F8910.0
sg9
F5.0
sg10
F8.0
sg11
F304.0
sg12
VRed
p426
sg14
F232.0
sba(i__main__
player
p427
(dp428
g3
F3.0
sg4
I12
sg5
S'Medic'
p429
sg7
F5247.0
sg8
F1337.0
sg9
F5.0
sg10
F22.0
sg11
F44.0
sg12
VRed
p430
sg14
F176.0
sba(i__main__
player
p431
(dp432
g3
F19.0
sg4
I22
sg5
S'Soldier'
p433
sg7
F8000.0
sg8
F7142.0
sg9
F6.0
sg10
F11.0
sg11
F242.0
sg12
VRed
p434
sg14
F271.0
sba(i__main__
player
p435
(dp436
g3
F1.0
sg4
I12
sg5
S'Medic'
p437
sg7
F5900.0
sg8
F151.0
sg9
F9.0
sg10
F31.0
sg11
F5.0
sg12
VRed
p438
sg14
F199.0
sba(i__main__
player
p439
(dp440
g3
F11.0
sg4
I13
sg5
S'Scout'
p441
sg7
F3086.0
sg8
F3015.0
sg9
F7.0
sg10
F4.0
sg11
F180.0
sg12
VRed
p442
sg14
F184.0
sba(i__main__
player
p443
(dp444
g3
F29.0
sg4
I28
sg5
S'Scout'
p445
sg7
F5575.0
sg8
F6538.0
sg9
F6.0
sg10
F11.0
sg11
F223.0
sg12
VBlu
p446
sg14
F190.0
sba(i__main__
player
p447
(dp448
g3
F1.0
sg4
I15
sg5
S'Medic'
p449
sg7
F3833.0
sg8
F1416.0
sg9
F3.0
sg10
F6.0
sg11
F69.0
sg12
VBlu
p450
sg14
F189.0
sba(i__main__
player
p451
(dp452
g3
F1.0
sg4
I15
sg5
S'Medic'
p453
sg7
F5069.0
sg8
F93.0
sg9
F8.0
sg10
F21.0
sg11
F3.0
sg12
VBlu
p454
sg14
F172.0
sba(i__main__
player
p455
(dp456
g3
F24.0
sg4
I26
sg5
S'Scout'
p457
sg7
F5397.0
sg8
F7032.0
sg9
F5.0
sg10
F10.0
sg11
F236.0
sg12
VBlu
p458
sg14
F181.0
sba(i__main__
player
p459
(dp460
g3
F28.0
sg4
I24
sg5
S'Scout'
p461
sg7
F5024.0
sg8
F6871.0
sg9
F13.0
sg10
F14.0
sg11
F232.0
sg12
VBlu
p462
sg14
F170.0
sba(i__main__
player
p463
(dp464
g3
F0.0
sg4
I8
sg5
S'Medic'
p465
sg7
F3404.0
sg8
F209.0
sg9
F3.0
sg10
F16.0
sg11
F7.0
sg12
VBlu
p466
sg14
F115.0
sba(i__main__
player
p467
(dp468
g3
F2.0
sg4
I4
sg5
S'Medic'
p469
sg7
F3457.0
sg8
F111.0
sg9
F10.0
sg10
F27.0
sg11
F4.0
sg12
VRed
p470
sg14
F143.0
sba(i__main__
player
p471
(dp472
g3
F2.0
sg4
I9
sg5
S'Medic'
p473
sg7
F4076.0
sg8
F589.0
sg9
F5.0
sg10
F15.0
sg11
F19.0
sg12
VRed
p474
sg14
F137.0
sba(i__main__
player
p475
(dp476
g3
F23.0
sg4
I17
sg5
S'Soldier'
p477
sg7
F9036.0
sg8
F7887.0
sg9
F6.0
sg10
F9.0
sg11
F267.0
sg12
VBlu
p478
sg14
F306.0
sba(i__main__
player
p479
(dp480
g3
F26.0
sg4
I22
sg5
S'Scout'
p481
sg7
F5012.0
sg8
F5564.0
sg9
F3.0
sg10
F7.0
sg11
F188.0
sg12
VRed
p482
sg14
F169.0
sba(i__main__
player
p483
(dp484
g3
F12.0
sg4
I29
sg5
S'Soldier'
p485
sg7
F8166.0
sg8
F5718.0
sg9
F2.0
sg10
F4.0
sg11
F194.0
sg12
VBlu
p486
sg14
F277.0
sba(i__main__
player
p487
(dp488
g3
F17.0
sg4
I19
sg5
S'Soldier'
p489
sg7
F9076.0
sg8
F6909.0
sg9
F2.0
sg10
F7.0
sg11
F233.0
sg12
VBlu
p490
sg14
F307.0
sba(i__main__
player
p491
(dp492
g3
F0.0
sg4
I16
sg5
S'Medic'
p493
sg7
F4463.0
sg8
F207.0
sg9
F3.0
sg10
F19.0
sg11
F7.0
sg12
VRed
p494
sg14
F151.0
sba(i__main__
player
p495
(dp496
g3
F26.0
sg4
I21
sg5
S'Soldier'
p497
sg7
F10178.0
sg8
F9499.0
sg9
F9.0
sg10
F11.0
sg11
F338.0
sg12
VBlu
p498
sg14
F362.0
sba(i__main__
player
p499
(dp500
g3
F31.0
sg4
I20
sg5
S'Soldier'
p501
sg7
F9817.0
sg8
F9848.0
sg9
F5.0
sg10
F10.0
sg11
F334.0
sg12
VRed
p502
sg14
F332.0
sba(i__main__
player
p503
(dp504
g3
F12.0
sg4
I13
sg5
S'Medic'
p505
sg7
F7211.0
sg8
F4792.0
sg9
F8.0
sg10
F25.0
sg11
F162.0
sg12
VBlu
p506
sg14
F244.0
sba(i__main__
player
p507
(dp508
g3
F20.0
sg4
I20
sg5
S'Scout'
p509
sg7
F4582.0
sg8
F4621.0
sg9
F5.0
sg10
F6.0
sg11
F155.0
sg12
VBlu
p510
sg14
F154.0
sba(i__main__
player
p511
(dp512
g3
F18.0
sg4
I17
sg5
S'Scout'
p513
sg7
F3584.0
sg8
F3281.0
sg9
F7.0
sg10
F3.0
sg11
F185.0
sg12
VRed
p514
sg14
F202.0
sba(i__main__
player
p515
(dp516
g3
F0.0
sg4
I10
sg5
S'Medic'
p517
sg7
F3872.0
sg8
F293.0
sg9
F2.0
sg10
F18.0
sg11
F9.0
sg12
VRed
p518
sg14
F131.0
sba(i__main__
player
p519
(dp520
g3
F16.0
sg4
I23
sg5
S'Soldier'
p521
sg7
F7840.0
sg8
F6981.0
sg9
F4.0
sg10
F3.0
sg11
F279.0
sg12
VBlu
p522
sg14
F313.0
sba(i__main__
player
p523
(dp524
g3
F29.0
sg4
I26
sg5
S'Scout'
p525
sg7
F5797.0
sg8
F6917.0
sg9
F5.0
sg10
F7.0
sg11
F235.0
sg12
VRed
p526
sg14
F197.0
sba(i__main__
player
p527
(dp528
g3
F1.0
sg4
I22
sg5
S'Medic'
p529
sg7
F5233.0
sg8
F1261.0
sg9
F4.0
sg10
F17.0
sg11
F42.0
sg12
VBlu
p530
sg14
F175.0
sba(i__main__
player
p531
(dp532
g3
F16.0
sg4
I19
sg5
S'Scout'
p533
sg7
F4967.0
sg8
F5013.0
sg9
F7.0
sg10
F4.0
sg11
F172.0
sg12
VRed
p534
sg14
F170.0
sba(i__main__
player
p535
(dp536
g3
F19.0
sg4
I28
sg5
S'Scout'
p537
sg7
F5749.0
sg8
F5385.0
sg9
F4.0
sg10
F10.0
sg11
F183.0
sg12
VBlu
p538
sg14
F195.0
sba(i__main__
player
p539
(dp540
g3
F4.0
sg4
I19
sg5
S'Medic'
p541
sg7
F4532.0
sg8
F1552.0
sg9
F3.0
sg10
F16.0
sg11
F52.0
sg12
VBlu
p542
sg14
F153.0
sba(i__main__
player
p543
(dp544
g3
F0.0
sg4
I14
sg5
S'Medic'
p545
sg7
F5582.0
sg8
F169.0
sg9
F9.0
sg10
F25.0
sg11
F5.0
sg12
VBlu
p546
sg14
F189.0
sba(i__main__
player
p547
(dp548
g3
F0.0
sg4
I10
sg5
S'Medic'
p549
sg7
F3777.0
sg8
F56.0
sg9
F7.0
sg10
F18.0
sg11
F1.0
sg12
VBlu
p550
sg14
F127.0
sba(i__main__
player
p551
(dp552
g3
F21.0
sg4
I26
sg5
S'Scout'
p553
sg7
F5615.0
sg8
F5076.0
sg9
F3.0
sg10
F11.0
sg11
F172.0
sg12
VRed
p554
sg14
F190.0
sba(i__main__
player
p555
(dp556
g3
F17.0
sg4
I18
sg5
S'Sniper'
p557
sg7
F5474.0
sg8
F6173.0
sg9
F7.0
sg10
F11.0
sg11
F211.0
sg12
VRed
p558
sg14
F187.0
sba(i__main__
player
p559
(dp560
g3
F13.0
sg4
I26
sg5
S'Scout'
p561
sg7
F5213.0
sg8
F4663.0
sg9
F7.0
sg10
F10.0
sg11
F157.0
sg12
VBlu
p562
sg14
F176.0
sba(i__main__
player
p563
(dp564
g3
F12.0
sg4
I22
sg5
S'Soldier'
p565
sg7
F7752.0
sg8
F6568.0
sg9
F5.0
sg10
F8.0
sg11
F223.0
sg12
VRed
p566
sg14
F264.0
sba(i__main__
player
p567
(dp568
g3
F0.0
sg4
I11
sg5
S'Medic'
p569
sg7
F3785.0
sg8
F45.0
sg9
F6.0
sg10
F16.0
sg11
F1.0
sg12
VRed
p570
sg14
F128.0
sba(i__main__
player
p571
(dp572
g3
F1.0
sg4
I9
sg5
S'Medic'
p573
sg7
F3064.0
sg8
F176.0
sg9
F4.0
sg10
F16.0
sg11
F6.0
sg12
VRed
p574
sg14
F104.0
sba(i__main__
player
p575
(dp576
g3
F0.0
sg4
I12
sg5
S'Medic'
p577
sg7
F5110.0
sg8
F298.0
sg9
F4.0
sg10
F12.0
sg11
F10.0
sg12
VBlu
p578
sg14
F172.0
sba(i__main__
player
p579
(dp580
g3
F30.0
sg4
I10
sg5
S'Soldier'
p581
sg7
F7971.0
sg8
F7157.0
sg9
F7.0
sg10
F8.0
sg11
F256.0
sg12
VRed
p582
sg14
F285.0
sba(i__main__
player
p583
(dp584
g3
F19.0
sg4
I23
sg5
S'Scout'
p585
sg7
F6005.0
sg8
F5969.0
sg9
F6.0
sg10
F4.0
sg11
F197.0
sg12
VRed
p586
sg14
F199.0
sba(i__main__
player
p587
(dp588
g3
F27.0
sg4
I27
sg5
S'Scout'
p589
sg7
F5803.0
sg8
F6612.0
sg9
F8.0
sg10
F4.0
sg11
F212.0
sg12
VBlu
p590
sg14
F186.0
sba(i__main__
player
p591
(dp592
g3
F1.0
sg4
I9
sg5
S'Medic'
p593
sg7
F4113.0
sg8
F275.0
sg9
F3.0
sg10
F17.0
sg11
F8.0
sg12
VRed
p594
sg14
F134.0
sba(i__main__
player
p595
(dp596
g3
F0.0
sg4
I15
sg5
S'Medic'
p597
sg7
F5024.0
sg8
F65.0
sg9
F6.0
sg10
F28.0
sg11
F2.0
sg12
VRed
p598
sg14
F164.0
sba(i__main__
player
p599
(dp600
g3
F14.0
sg4
I23
sg5
S'Scout'
p601
sg7
F5515.0
sg8
F4793.0
sg9
F2.0
sg10
F6.0
sg11
F161.0
sg12
VRed
p602
sg14
F185.0
sba(i__main__
player
p603
(dp604
g3
F1.0
sg4
I7
sg5
S'Medic'
p605
sg7
F3256.0
sg8
F110.0
sg9
F3.0
sg10
F20.0
sg11
F3.0
sg12
VBlu
p606
sg14
F102.0
sba(i__main__
player
p607
(dp608
g3
F19.0
sg4
I23
sg5
S'Scout'
p609
sg7
F5734.0
sg8
F5766.0
sg9
F4.0
sg10
F5.0
sg11
F194.0
sg12
VRed
p610
sg14
F193.0
sba(i__main__
player
p611
(dp612
g3
F14.0
sg4
I29
sg5
S'Scout'
p613
sg7
F6490.0
sg8
F4428.0
sg9
F0.0
sg10
F5.0
sg11
F152.0
sg12
VBlu
p614
sg14
F223.0
sba(i__main__
player
p615
(dp616
g3
F4.0
sg4
I7
sg5
S'Medic'
p617
sg7
F3895.0
sg8
F1841.0
sg9
F6.0
sg10
F19.0
sg11
F85.0
sg12
VBlu
p618
sg14
F181.0
sba(i__main__
player
p619
(dp620
g3
F23.0
sg4
I28
sg5
S'Scout'
p621
sg7
F6119.0
sg8
F6735.0
sg9
F5.0
sg10
F13.0
sg11
F225.0
sg12
VBlu
p622
sg14
F205.0
sba(i__main__
player
p623
(dp624
g3
F0.0
sg4
I12
sg5
S'Medic'
p625
sg7
F3688.0
sg8
F246.0
sg9
F3.0
sg10
F31.0
sg11
F8.0
sg12
VBlu
p626
sg14
F124.0
sba(i__main__
player
p627
(dp628
g3
F0.0
sg4
I13
sg5
S'Medic'
p629
sg7
F3665.0
sg8
F146.0
sg9
F2.0
sg10
F11.0
sg11
F6.0
sg12
VRed
p630
sg14
F169.0
sba(i__main__
player
p631
(dp632
g3
F0.0
sg4
I14
sg5
S'Medic'
p633
sg7
F4492.0
sg8
F169.0
sg9
F5.0
sg10
F21.0
sg11
F5.0
sg12
VRed
p634
sg14
F152.0
sba(i__main__
player
p635
(dp636
g3
F24.0
sg4
I26
sg5
S'Scout'
p637
sg7
F5307.0
sg8
F5274.0
sg9
F8.0
sg10
F13.0
sg11
F178.0
sg12
VRed
p638
sg14
F179.0
sba(i__main__
player
p639
(dp640
g3
F0.0
sg4
I15
sg5
S'Medic'
p641
sg7
F4442.0
sg8
F150.0
sg9
F2.0
sg10
F14.0
sg11
F5.0
sg12
VBlu
p642
sg14
F149.0
sba(i__main__
player
p643
(dp644
g3
F31.0
sg4
I22
sg5
S'Scout'
p645
sg7
F5133.0
sg8
F6171.0
sg9
F10.0
sg10
F8.0
sg11
F209.0
sg12
VBlu
p646
sg14
F174.0
sba(i__main__
player
p647
(dp648
g3
F25.0
sg4
I25
sg5
S'Scout'
p649
sg7
F5425.0
sg8
F5890.0
sg9
F11.0
sg10
F5.0
sg11
F198.0
sg12
VRed
p650
sg14
F182.0
sba(i__main__
player
p651
(dp652
g3
F0.0
sg4
I9
sg5
S'Medic'
p653
sg7
F3148.0
sg8
F0.0
sg9
F6.0
sg10
F7.0
sg11
F0.0
sg12
VRed
p654
sg14
F134.0
sba(i__main__
player
p655
(dp656
g3
F22.0
sg4
I23
sg5
S'Scout'
p657
sg7
F5355.0
sg8
F6640.0
sg9
F4.0
sg10
F16.0
sg11
F225.0
sg12
VRed
p658
sg14
F181.0
sba(i__main__
player
p659
(dp660
g3
F10.0
sg4
I17
sg5
S'Scout'
p661
sg7
F3919.0
sg8
F4259.0
sg9
F1.0
sg10
F5.0
sg11
F240.0
sg12
VRed
p662
sg14
F221.0
sba(i__main__
player
p663
(dp664
g3
F22.0
sg4
I26
sg5
S'Scout'
p665
sg7
F6382.0
sg8
F6062.0
sg9
F6.0
sg10
F8.0
sg11
F204.0
sg12
VBlu
p666
sg14
F215.0
sba(i__main__
player
p667
(dp668
g3
F13.0
sg4
I20
sg5
S'Scout'
p669
sg7
F5048.0
sg8
F5224.0
sg9
F3.0
sg10
F10.0
sg11
F247.0
sg12
VRed
p670
sg14
F238.0
sba(i__main__
player
p671
(dp672
g3
F1.0
sg4
I12
sg5
S'Medic'
p673
sg7
F4457.0
sg8
F227.0
sg9
F9.0
sg10
F20.0
sg11
F7.0
sg12
VRed
p674
sg14
F150.0
sba(i__main__
player
p675
(dp676
g3
F19.0
sg4
I22
sg5
S'Scout'
p677
sg7
F5025.0
sg8
F4502.0
sg9
F8.0
sg10
F8.0
sg11
F151.0
sg12
VBlu
p678
sg14
F169.0
sba(i__main__
player
p679
(dp680
g3
F1.0
sg4
I11
sg5
S'Medic'
p681
sg7
F4840.0
sg8
F550.0
sg9
F8.0
sg10
F17.0
sg11
F18.0
sg12
VBlu
p682
sg14
F162.0
sba(i__main__
player
p683
(dp684
g3
F23.0
sg4
I28
sg5
S'Scout'
p685
sg7
F5869.0
sg8
F5906.0
sg9
F3.0
sg10
F5.0
sg11
F200.0
sg12
VRed
p686
sg14
F199.0
sba(i__main__
player
p687
(dp688
g3
F0.0
sg4
I11
sg5
S'Medic'
p689
sg7
F4434.0
sg8
F282.0
sg9
F6.0
sg10
F19.0
sg11
F9.0
sg12
VRed
p690
sg14
F150.0
sba(i__main__
player
p691
(dp692
g3
F20.0
sg4
I24
sg5
S'Scout'
p693
sg7
F6934.0
sg8
F5809.0
sg9
F4.0
sg10
F14.0
sg11
F198.0
sg12
VRed
p694
sg14
F236.0
sba(i__main__
player
p695
(dp696
g3
F0.0
sg4
I12
sg5
S'Medic'
p697
sg7
F4146.0
sg8
F120.0
sg9
F6.0
sg10
F11.0
sg11
F4.0
sg12
VBlu
p698
sg14
F139.0
sba(i__main__
player
p699
(dp700
g3
F19.0
sg4
I26
sg5
S'Scout'
p701
sg7
F7173.0
sg8
F6142.0
sg9
F5.0
sg10
F4.0
sg11
F207.0
sg12
VBlu
p702
sg14
F242.0
sba(i__main__
player
p703
(dp704
g3
F14.0
sg4
I31
sg5
S'Scout'
p705
sg7
F6249.0
sg8
F6034.0
sg9
F6.0
sg10
F6.0
sg11
F204.0
sg12
VBlu
p706
sg14
F211.0
sba(i__main__
player
p707
(dp708
g3
F21.0
sg4
I33
sg5
S'Scout'
p709
sg7
F6541.0
sg8
F6319.0
sg9
F2.0
sg10
F4.0
sg11
F214.0
sg12
VRed
p710
sg14
F221.0
sba(i__main__
player
p711
(dp712
g3
F1.0
sg4
I10
sg5
S'Medic'
p713
sg7
F4374.0
sg8
F223.0
sg9
F6.0
sg10
F15.0
sg11
F7.0
sg12
VRed
p714
sg14
F147.0
sba(i__main__
player
p715
(dp716
g3
F27.0
sg4
I31
sg5
S'Scout'
p717
sg7
F6734.0
sg8
F7585.0
sg9
F6.0
sg10
F12.0
sg11
F258.0
sg12
VRed
p718
sg14
F229.0
sba(i__main__
player
p719
(dp720
g3
F26.0
sg4
I30
sg5
S'Scout'
p721
sg7
F6188.0
sg8
F5653.0
sg9
F7.0
sg10
F9.0
sg11
F191.0
sg12
VRed
p722
sg14
F209.0
sba(i__main__
player
p723
(dp724
g3
F28.0
sg4
I29
sg5
S'Scout'
p725
sg7
F6262.0
sg8
F5742.0
sg9
F4.0
sg10
F13.0
sg11
F193.0
sg12
VBlu
p726
sg14
F210.0
sba(i__main__
player
p727
(dp728
g3
F15.0
sg4
I29
sg5
S'Scout'
p729
sg7
F6384.0
sg8
F5556.0
sg9
F4.0
sg10
F7.0
sg11
F187.0
sg12
VRed
p730
sg14
F215.0
sba(i__main__
player
p731
(dp732
g3
F0.0
sg4
I16
sg5
S'Medic'
p733
sg7
F4881.0
sg8
F58.0
sg9
F3.0
sg10
F15.0
sg11
F1.0
sg12
VRed
p734
sg14
F165.0
sba(i__main__
player
p735
(dp736
g3
F4.0
sg4
I13
sg5
S'Medic'
p737
sg7
F4062.0
sg8
F806.0
sg9
F7.0
sg10
F21.0
sg11
F27.0
sg12
VBlu
p738
sg14
F136.0
sba(i__main__
player
p739
(dp740
g3
F30.0
sg4
I29
sg5
S'Scout'
p741
sg7
F5279.0
sg8
F6127.0
sg9
F3.0
sg10
F7.0
sg11
F207.0
sg12
VBlu
p742
sg14
F178.0
sba(i__main__
player
p743
(dp744
g3
F1.0
sg4
I17
sg5
S'Medic'
p745
sg7
F5320.0
sg8
F169.0
sg9
F4.0
sg10
F14.0
sg11
F5.0
sg12
VRed
p746
sg14
F179.0
sba(i__main__
player
p747
(dp748
g3
F11.0
sg4
I11
sg5
S'Medic'
p749
sg7
F2238.0
sg8
F2025.0
sg9
F4.0
sg10
F4.0
sg11
F63.0
sg12
VRed
p750
sg14
F70.0
sba(i__main__
player
p751
(dp752
g3
F32.0
sg4
I27
sg5
S'Scout'
p753
sg7
F6221.0
sg8
F7855.0
sg9
F4.0
sg10
F8.0
sg11
F269.0
sg12
VRed
p754
sg14
F213.0
sba(i__main__
player
p755
(dp756
g3
F2.0
sg4
I10
sg5
S'Medic'
p757
sg7
F4418.0
sg8
F440.0
sg9
F4.0
sg10
F15.0
sg11
F14.0
sg12
VRed
p758
sg14
F148.0
sba(i__main__
player
p759
(dp760
g3
F4.0
sg4
I22
sg5
S'Soldier'
p761
sg7
F6253.0
sg8
F3220.0
sg9
F1.0
sg10
F2.0
sg11
F157.0
sg12
VRed
p762
sg14
F306.0
sba(i__main__
player
p763
(dp764
g3
F12.0
sg4
I20
sg5
S'Soldier'
p765
sg7
F5103.0
sg8
F4469.0
sg9
F2.0
sg10
F4.0
sg11
F201.0
sg12
VBlu
p766
sg14
F229.0
sba(i__main__
player
p767
(dp768
g3
F20.0
sg4
I24
sg5
S'Scout'
p769
sg7
F4835.0
sg8
F4750.0
sg9
F9.0
sg10
F3.0
sg11
F161.0
sg12
VBlu
p770
sg14
F164.0
sba(i__main__
player
p771
(dp772
g3
F20.0
sg4
I31
sg5
S'Scout'
p773
sg7
F6260.0
sg8
F5115.0
sg9
F5.0
sg10
F4.0
sg11
F172.0
sg12
VRed
p774
sg14
F211.0
sba(i__main__
player
p775
(dp776
g3
F0.0
sg4
I11
sg5
S'Medic'
p777
sg7
F3706.0
sg8
F228.0
sg9
F7.0
sg10
F15.0
sg11
F7.0
sg12
VBlu
p778
sg14
F125.0
sba(i__main__
player
p779
(dp780
g3
F27.0
sg4
I26
sg5
S'Scout'
p781
sg7
F5743.0
sg8
F5666.0
sg9
F6.0
sg10
F11.0
sg11
F192.0
sg12
VBlu
p782
sg14
F194.0
sba(i__main__
player
p783
(dp784
g3
F29.0
sg4
I28
sg5
S'Scout'
p785
sg7
F5521.0
sg8
F6283.0
sg9
F3.0
sg10
F8.0
sg11
F211.0
sg12
VRed
p786
sg14
F186.0
sba(i__main__
player
p787
(dp788
g3
F0.0
sg4
I10
sg5
S'Medic'
p789
sg7
F5101.0
sg8
F393.0
sg9
F3.0
sg10
F25.0
sg11
F13.0
sg12
VRed
p790
sg14
F173.0
sba(i__main__
player
p791
(dp792
g3
F17.0
sg4
I29
sg5
S'Scout'
p793
sg7
F6442.0
sg8
F6188.0
sg9
F4.0
sg10
F11.0
sg11
F211.0
sg12
VRed
p794
sg14
F220.0
sba(i__main__
player
p795
(dp796
g3
F26.0
sg4
I35
sg5
S'Scout'
p797
sg7
F6982.0
sg8
F6164.0
sg9
F4.0
sg10
F9.0
sg11
F250.0
sg12
VBlu
p798
sg14
F283.0
sba(i__main__
player
p799
(dp800
g3
F21.0
sg4
I22
sg5
S'Scout'
p801
sg7
F5480.0
sg8
F5620.0
sg9
F5.0
sg10
F11.0
sg11
F190.0
sg12
VRed
p802
sg14
F185.0
sba(i__main__
player
p803
(dp804
g3
F0.0
sg4
I14
sg5
S'Medic'
p805
sg7
F4735.0
sg8
F372.0
sg9
F3.0
sg10
F21.0
sg11
F12.0
sg12
VRed
p806
sg14
F160.0
sba(i__main__
player
p807
(dp808
g3
F11.0
sg4
I16
sg5
S'Scout'
p809
sg7
F3301.0
sg8
F2915.0
sg9
F5.0
sg10
F6.0
sg11
F124.0
sg12
VBlu
p810
sg14
F141.0
sba(i__main__
player
p811
(dp812
g3
F20.0
sg4
I24
sg5
S'Soldier'
p813
sg7
F7010.0
sg8
F6345.0
sg9
F4.0
sg10
F9.0
sg11
F214.0
sg12
VRed
p814
sg14
F237.0
sba(i__main__
player
p815
(dp816
g3
F15.0
sg4
I28
sg5
S'Soldier'
p817
sg7
F6076.0
sg8
F5396.0
sg9
F2.0
sg10
F4.0
sg11
F182.0
sg12
VBlu
p818
sg14
F205.0
sba(i__main__
player
p819
(dp820
g3
F15.0
sg4
I18
sg5
S'Scout'
p821
sg7
F4215.0
sg8
F3864.0
sg9
F8.0
sg10
F8.0
sg11
F130.0
sg12
VRed
p822
sg14
F142.0
sba(i__main__
player
p823
(dp824
g3
F0.0
sg4
I11
sg5
S'Medic'
p825
sg7
F4499.0
sg8
F186.0
sg9
F4.0
sg10
F8.0
sg11
F6.0
sg12
VBlu
p826
sg14
F152.0
sba(i__main__
player
p827
(dp828
g3
F0.0
sg4
I16
sg5
S'Medic'
p829
sg7
F4569.0
sg8
F151.0
sg9
F2.0
sg10
F12.0
sg11
F5.0
sg12
VRed
p830
sg14
F154.0
sba(i__main__
player
p831
(dp832
g3
F26.0
sg4
I26
sg5
S'Scout'
p833
sg7
F5883.0
sg8
F6332.0
sg9
F4.0
sg10
F12.0
sg11
F215.0
sg12
VRed
p834
sg14
F200.0
sba(i__main__
player
p835
(dp836
g3
F13.0
sg4
I21
sg5
S'Scout'
p837
sg7
F5181.0
sg8
F4593.0
sg9
F5.0
sg10
F5.0
sg11
F154.0
sg12
VRed
p838
sg14
F174.0
sba(i__main__
player
p839
(dp840
g3
F0.0
sg4
I11
sg5
S'Medic'
p841
sg7
F4442.0
sg8
F82.0
sg9
F5.0
sg10
F17.0
sg11
F2.0
sg12
VRed
p842
sg14
F151.0
sba(i__main__
player
p843
(dp844
g3
F1.0
sg4
I17
sg5
S'Medic'
p845
sg7
F5330.0
sg8
F912.0
sg9
F9.0
sg10
F24.0
sg11
F31.0
sg12
VBlu
p846
sg14
F181.0
sba(i__main__
player
p847
(dp848
g3
F0.0
sg4
I11
sg5
S'Medic'
p849
sg7
F3459.0
sg8
F0.0
sg9
F3.0
sg10
F23.0
sg11
F0.0
sg12
VRed
p850
sg14
F116.0
sba(i__main__
player
p851
(dp852
g3
F10.0
sg4
I18
sg5
S'Scout'
p853
sg7
F3586.0
sg8
F3724.0
sg9
F1.0
sg10
F7.0
sg11
F188.0
sg12
VBlu
p854
sg14
F181.0
sba(i__main__
player
p855
(dp856
g3
F16.0
sg4
I19
sg5
S'Scout'
p857
sg7
F3331.0
sg8
F3090.0
sg9
F4.0
sg10
F9.0
sg11
F168.0
sg12
VRed
p858
sg14
F181.0
sba(i__main__
player
p859
(dp860
g3
F15.0
sg4
I26
sg5
S'Scout'
p861
sg7
F5566.0
sg8
F4700.0
sg9
F4.0
sg10
F9.0
sg11
F160.0
sg12
VBlu
p862
sg14
F190.0
sba(i__main__
player
p863
(dp864
g3
F6.0
sg4
I23
sg5
S'Medic'
p865
sg7
F5647.0
sg8
F2310.0
sg9
F2.0
sg10
F31.0
sg11
F78.0
sg12
VRed
p866
sg14
F191.0
sba(i__main__
player
p867
(dp868
g3
F1.0
sg4
I19
sg5
S'Medic'
p869
sg7
F4958.0
sg8
F167.0
sg9
F6.0
sg10
F28.0
sg11
F5.0
sg12
VRed
p870
sg14
F165.0
sba(i__main__
player
p871
(dp872
g3
F1.0
sg4
I13
sg5
S'Medic'
p873
sg7
F4664.0
sg8
F195.0
sg9
F6.0
sg10
F26.0
sg11
F6.0
sg12
VRed
p874
sg14
F157.0
sba(i__main__
player
p875
(dp876
g3
F15.0
sg4
I29
sg5
S'Scout'
p877
sg7
F6027.0
sg8
F4905.0
sg9
F4.0
sg10
F6.0
sg11
F165.0
sg12
VBlu
p878
sg14
F203.0
sba(i__main__
player
p879
(dp880
g3
F5.0
sg4
I15
sg5
S'Medic'
p881
sg7
F5889.0
sg8
F2356.0
sg9
F4.0
sg10
F17.0
sg11
F79.0
sg12
VRed
p882
sg14
F197.0
sba(i__main__
player
p883
(dp884
g3
F0.0
sg4
I11
sg5
S'Medic'
p885
sg7
F3537.0
sg8
F97.0
sg9
F3.0
sg10
F11.0
sg11
F3.0
sg12
VBlu
p886
sg14
F118.0
sba(i__main__
player
p887
(dp888
g3
F21.0
sg4
I28
sg5
S'Scout'
p889
sg7
F6510.0
sg8
F6695.0
sg9
F4.0
sg10
F3.0
sg11
F227.0
sg12
VBlu
p890
sg14
F221.0
sba(i__main__
player
p891
(dp892
g3
F15.0
sg4
I35
sg5
S'Scout'
p893
sg7
F6211.0
sg8
F4432.0
sg9
F3.0
sg10
F7.0
sg11
F149.0
sg12
VBlu
p894
sg14
F209.0
sba(i__main__
player
p895
(dp896
g3
F0.0
sg4
I13
sg5
S'Medic'
p897
sg7
F4178.0
sg8
F45.0
sg9
F8.0
sg10
F16.0
sg11
F1.0
sg12
VBlu
p898
sg14
F167.0
sba(i__main__
player
p899
(dp900
g3
F16.0
sg4
I22
sg5
S'Soldier'
p901
sg7
F8262.0
sg8
F8916.0
sg9
F6.0
sg10
F7.0
sg11
F302.0
sg12
VRed
p902
sg14
F280.0
sba(i__main__
player
p903
(dp904
g3
F22.0
sg4
I35
sg5
S'Scout'
p905
sg7
F6548.0
sg8
F7293.0
sg9
F5.0
sg10
F9.0
sg11
F246.0
sg12
VRed
p906
sg14
F221.0
sba(i__main__
player
p907
(dp908
g3
F20.0
sg4
I19
sg5
S'Soldier'
p909
sg7
F9587.0
sg8
F8563.0
sg9
F4.0
sg10
F8.0
sg11
F288.0
sg12
VRed
p910
sg14
F322.0
sba(i__main__
player
p911
(dp912
g3
F6.0
sg4
I27
sg5
S'Scout'
p913
sg7
F5906.0
sg8
F2476.0
sg9
F0.0
sg10
F15.0
sg11
F83.0
sg12
VBlu
p914
sg14
F200.0
sba(i__main__
player
p915
(dp916
g3
F0.0
sg4
I2
sg5
S'Medic'
p917
sg7
F1222.0
sg8
F0.0
sg9
F1.0
sg10
F4.0
sg11
F0.0
sg12
VRed
p918
sg14
F41.0
sba(i__main__
player
p919
(dp920
g3
F12.0
sg4
I9
sg5
S'Medic'
p921
sg7
F4561.0
sg8
F2580.0
sg9
F10.0
sg10
F22.0
sg11
F116.0
sg12
VBlu
p922
sg14
F206.0
sba(i__main__
player
p923
(dp924
g3
F0.0
sg4
I18
sg5
S'Medic'
p925
sg7
F4940.0
sg8
F168.0
sg9
F6.0
sg10
F26.0
sg11
F5.0
sg12
VBlu
p926
sg14
F167.0
sba(i__main__
player
p927
(dp928
g3
F9.0
sg4
I23
sg5
S'Medic'
p929
sg7
F5263.0
sg8
F2562.0
sg9
F4.0
sg10
F19.0
sg11
F86.0
sg12
VRed
p930
sg14
F177.0
sba(i__main__
player
p931
(dp932
g3
F0.0
sg4
I1
sg5
S'Medic'
p933
sg7
F0.0
sg8
F0.0
sg9
F0.0
sg10
F0.0
sg11
F0.0
sg12
VBlu
p934
sg14
F0.0
sba.