(lp0
(i__main__
player
p1
(dp2
S'class_played'
p3
S'Soldier'
p4
sS'assists'
p5
F10.0
sS'deaths'
p6
I6
sS'kills'
p7
F25.0
sS'team'
p8
VRed
p9
sba(i__main__
player
p10
(dp11
g3
S'Medic'
p12
sg5
F29.0
sg6
I16
sg7
F4.0
sg8
VRed
p13
sba(i__main__
player
p14
(dp15
g3
S'Soldier'
p16
sg5
F4.0
sg6
I15
sg7
F19.0
sg8
VRed
p17
sba(i__main__
player
p18
(dp19
g3
S'Soldier'
p20
sg5
F5.0
sg6
I15
sg7
F22.0
sg8
VRed
p21
sba(i__main__
player
p22
(dp23
g3
S'Medic'
p24
sg5
F13.0
sg6
I14
sg7
F2.0
sg8
VRed
p25
sba(i__main__
player
p26
(dp27
g3
S'Soldier'
p28
sg5
F4.0
sg6
I10
sg7
F28.0
sg8
VRed
p29
sba(i__main__
player
p30
(dp31
g3
S'Soldier'
p32
sg5
F12.0
sg6
I15
sg7
F33.0
sg8
VRed
p33
sba(i__main__
player
p34
(dp35
g3
S'Soldier'
p36
sg5
F8.0
sg6
I16
sg7
F23.0
sg8
VBlu
p37
sba(i__main__
player
p38
(dp39
g3
S'Soldier'
p40
sg5
F8.0
sg6
I12
sg7
F20.0
sg8
VBlu
p41
sba(i__main__
player
p42
(dp43
g3
S'Soldier'
p44
sg5
F5.0
sg6
I16
sg7
F22.0
sg8
VRed
p45
sba(i__main__
player
p46
(dp47
g3
S'Soldier'
p48
sg5
F12.0
sg6
I13
sg7
F23.0
sg8
VRed
p49
sba(i__main__
player
p50
(dp51
g3
S'Medic'
p52
sg5
F15.0
sg6
I14
sg7
F2.0
sg8
VRed
p53
sba(i__main__
player
p54
(dp55
g3
S'Soldier'
p56
sg5
F9.0
sg6
I18
sg7
F25.0
sg8
VRed
p57
sba(i__main__
player
p58
(dp59
g3
S'Scout'
p60
sg5
F0.0
sg6
I1
sg7
F1.0
sg8
VBlu
p61
sba(i__main__
player
p62
(dp63
g3
S'Scout'
p64
sg5
F4.0
sg6
I12
sg7
F21.0
sg8
VRed
p65
sba(i__main__
player
p66
(dp67
g3
S'Soldier'
p68
sg5
F12.0
sg6
I15
sg7
F15.0
sg8
VBlu
p69
sba(i__main__
player
p70
(dp71
g3
S'Soldier'
p72
sg5
F8.0
sg6
I24
sg7
F18.0
sg8
VRed
p73
sba(i__main__
player
p74
(dp75
g3
S'Scout'
p76
sg5
F8.0
sg6
I18
sg7
F15.0
sg8
VBlu
p77
sba(i__main__
player
p78
(dp79
g3
S'Soldier'
p80
sg5
F8.0
sg6
I16
sg7
F27.0
sg8
VRed
p81
sba(i__main__
player
p82
(dp83
g3
S'Scout'
p84
sg5
F14.0
sg6
I24
sg7
F28.0
sg8
VRed
p85
sba(i__main__
player
p86
(dp87
g3
S'Soldier'
p88
sg5
F4.0
sg6
I16
sg7
F16.0
sg8
VBlu
p89
sba(i__main__
player
p90
(dp91
g3
S'Soldier'
p92
sg5
F8.0
sg6
I14
sg7
F23.0
sg8
VRed
p93
sba(i__main__
player
p94
(dp95
g3
S'Soldier'
p96
sg5
F11.0
sg6
I14
sg7
F30.0
sg8
VRed
p97
sba(i__main__
player
p98
(dp99
g3
S'Scout'
p100
sg5
F8.0
sg6
I24
sg7
F12.0
sg8
VRed
p101
sba(i__main__
player
p102
(dp103
g3
S'Scout'
p104
sg5
F12.0
sg6
I15
sg7
F21.0
sg8
VBlu
p105
sba(i__main__
player
p106
(dp107
g3
S'Scout'
p108
sg5
F12.0
sg6
I23
sg7
F31.0
sg8
VRed
p109
sba(i__main__
player
p110
(dp111
g3
S'Soldier'
p112
sg5
F9.0
sg6
I16
sg7
F23.0
sg8
VRed
p113
sba(i__main__
player
p114
(dp115
g3
S'Soldier'
p116
sg5
F15.0
sg6
I16
sg7
F28.0
sg8
VBlu
p117
sba(i__main__
player
p118
(dp119
g3
S'Medic'
p120
sg5
F27.0
sg6
I7
sg7
F1.0
sg8
VBlu
p121
sba(i__main__
player
p122
(dp123
g3
S'Scout'
p124
sg5
F5.0
sg6
I21
sg7
F20.0
sg8
VBlu
p125
sba(i__main__
player
p126
(dp127
g3
S'Scout'
p128
sg5
F9.0
sg6
I23
sg7
F23.0
sg8
VBlu
p129
sba(i__main__
player
p130
(dp131
g3
S'Demoman'
p132
sg5
F6.0
sg6
I22
sg7
F24.0
sg8
VRed
p133
sba(i__main__
player
p134
(dp135
g3
S'Scout'
p136
sg5
F4.0
sg6
I29
sg7
F26.0
sg8
VRed
p137
sba(i__main__
player
p138
(dp139
g3
S'Scout'
p140
sg5
F5.0
sg6
I28
sg7
F29.0
sg8
VBlu
p141
sba(i__main__
player
p142
(dp143
g3
S'Soldier'
p144
sg5
F11.0
sg6
I19
sg7
F27.0
sg8
VRed
p145
sba(i__main__
player
p146
(dp147
g3
S'Demoman'
p148
sg5
F8.0
sg6
I2
sg7
F38.0
sg8
VRed
p149
sba(i__main__
player
p150
(dp151
g3
S'Medic'
p152
sg5
F10.0
sg6
I15
sg7
F4.0
sg8
VBlu
p153
sba(i__main__
player
p154
(dp155
g3
S'Soldier'
p156
sg5
F6.0
sg6
I16
sg7
F18.0
sg8
VRed
p157
sba(i__main__
player
p158
(dp159
g3
S'Scout'
p160
sg5
F9.0
sg6
I29
sg7
F19.0
sg8
VRed
p161
sba(i__main__
player
p162
(dp163
g3
S'Soldier'
p164
sg5
F10.0
sg6
I5
sg7
F22.0
sg8
VRed
p165
sba(i__main__
player
p166
(dp167
g3
S'Scout'
p168
sg5
F7.0
sg6
I22
sg7
F19.0
sg8
VBlu
p169
sba(i__main__
player
p170
(dp171
g3
S'Scout'
p172
sg5
F8.0
sg6
I29
sg7
F29.0
sg8
VBlu
p173
sba(i__main__
player
p174
(dp175
g3
S'Soldier'
p176
sg5
F4.0
sg6
I26
sg7
F17.0
sg8
VBlu
p177
sba(i__main__
player
p178
(dp179
g3
S'Scout'
p180
sg5
F7.0
sg6
I18
sg7
F19.0
sg8
VRed
p181
sba(i__main__
player
p182
(dp183
g3
S'Medic'
p184
sg5
F14.0
sg6
I14
sg7
F18.0
sg8
VRed
p185
sba(i__main__
player
p186
(dp187
g3
S'Scout'
p188
sg5
F8.0
sg6
I26
sg7
F21.0
sg8
VBlu
p189
sba(i__main__
player
p190
(dp191
g3
S'Soldier'
p192
sg5
F7.0
sg6
I15
sg7
F25.0
sg8
VRed
p193
sba(i__main__
player
p194
(dp195
g3
S'Soldier'
p196
sg5
F10.0
sg6
I2
sg7
F10.0
sg8
VBlu
p197
sba(i__main__
player
p198
(dp199
g3
S'Medic'
p200
sg5
F24.0
sg6
I15
sg7
F0.0
sg8
VBlu
p201
sba(i__main__
player
p202
(dp203
g3
S'Medic'
p204
sg5
F14.0
sg6
I6
sg7
F1.0
sg8
VRed
p205
sba(i__main__
player
p206
(dp207
g3
S'Medic'
p208
sg5
F18.0
sg6
I9
sg7
F3.0
sg8
VRed
p209
sba(i__main__
player
p210
(dp211
g3
S'Scout'
p212
sg5
F9.0
sg6
I7
sg7
F15.0
sg8
VBlu
p213
sba(i__main__
player
p214
(dp215
g3
S'Soldier'
p216
sg5
F15.0
sg6
I11
sg7
F11.0
sg8
VBlu
p217
sba(i__main__
player
p218
(dp219
g3
S'Medic'
p220
sg5
F10.0
sg6
I16
sg7
F1.0
sg8
VBlu
p221
sba(i__main__
player
p222
(dp223
g3
S'Scout'
p224
sg5
F6.0
sg6
I30
sg7
F28.0
sg8
VBlu
p225
sba(i__main__
player
p226
(dp227
g3
S'Scout'
p228
sg5
F10.0
sg6
I22
sg7
F24.0
sg8
VRed
p229
sba(i__main__
player
p230
(dp231
g3
S'Scout'
p232
sg5
F16.0
sg6
I22
sg7
F17.0
sg8
VBlu
p233
sba(i__main__
player
p234
(dp235
g3
S'Scout'
p236
sg5
F12.0
sg6
I16
sg7
F21.0
sg8
VBlu
p237
sba(i__main__
player
p238
(dp239
g3
S'Soldier'
p240
sg5
F7.0
sg6
I21
sg7
F22.0
sg8
VBlu
p241
sba(i__main__
player
p242
(dp243
g3
S'Scout'
p244
sg5
F10.0
sg6
I14
sg7
F25.0
sg8
VRed
p245
sba(i__main__
player
p246
(dp247
g3
S'Medic'
p248
sg5
F30.0
sg6
I13
sg7
F2.0
sg8
VRed
p249
sba(i__main__
player
p250
(dp251
g3
S'Soldier'
p252
sg5
F4.0
sg6
I13
sg7
F24.0
sg8
VRed
p253
sba(i__main__
player
p254
(dp255
g3
S'Soldier'
p256
sg5
F5.0
sg6
I25
sg7
F15.0
sg8
VBlu
p257
sba(i__main__
player
p258
(dp259
g3
S'Soldier'
p260
sg5
F18.0
sg6
I12
sg7
F40.0
sg8
VBlu
p261
sba(i__main__
player
p262
(dp263
g3
S'Medic'
p264
sg5
F19.0
sg6
I11
sg7
F0.0
sg8
VRed
p265
sba(i__main__
player
p266
(dp267
g3
S'Soldier'
p268
sg5
F2.0
sg6
I5
sg7
F6.0
sg8
VRed
p269
sba(i__main__
player
p270
(dp271
g3
S'Soldier'
p272
sg5
F5.0
sg6
I18
sg7
F18.0
sg8
VBlu
p273
sba(i__main__
player
p274
(dp275
g3
S'Scout'
p276
sg5
F10.0
sg6
I28
sg7
F25.0
sg8
VRed
p277
sba(i__main__
player
p278
(dp279
g3
S'Soldier'
p280
sg5
F14.0
sg6
I16
sg7
F31.0
sg8
VBlu
p281
sba(i__main__
player
p282
(dp283
g3
S'Soldier'
p284
sg5
F13.0
sg6
I19
sg7
F28.0
sg8
VBlu
p285
sba(i__main__
player
p286
(dp287
g3
S'Demoman'
p288
sg5
F0.0
sg6
I1
sg7
F3.0
sg8
VRed
p289
sba(i__main__
player
p290
(dp291
g3
S'Scout'
p292
sg5
F11.0
sg6
I27
sg7
F21.0
sg8
VBlu
p293
sba(i__main__
player
p294
(dp295
g3
S'Soldier'
p296
sg5
F5.0
sg6
I23
sg7
F15.0
sg8
VBlu
p297
sba(i__main__
player
p298
(dp299
g3
S'Medic'
p300
sg5
F29.0
sg6
I10
sg7
F2.0
sg8
VBlu
p301
sba(i__main__
player
p302
(dp303
g3
S'Soldier'
p304
sg5
F9.0
sg6
I27
sg7
F28.0
sg8
VBlu
p305
sba(i__main__
player
p306
(dp307
g3
S'Soldier'
p308
sg5
F16.0
sg6
I8
sg7
F30.0
sg8
VRed
p309
sba(i__main__
player
p310
(dp311
g3
S'Soldier'
p312
sg5
F8.0
sg6
I21
sg7
F23.0
sg8
VRed
p313
sba(i__main__
player
p314
(dp315
g3
S'Scout'
p316
sg5
F3.0
sg6
I25
sg7
F23.0
sg8
VRed
p317
sba(i__main__
player
p318
(dp319
g3
S'Soldier'
p320
sg5
F5.0
sg6
I10
sg7
F22.0
sg8
VBlu
p321
sba(i__main__
player
p322
(dp323
g3
S'Soldier'
p324
sg5
F11.0
sg6
I19
sg7
F29.0
sg8
VRed
p325
sba(i__main__
player
p326
(dp327
g3
S'Soldier'
p328
sg5
F11.0
sg6
I15
sg7
F14.0
sg8
VBlu
p329
sba(i__main__
player
p330
(dp331
g3
S'Soldier'
p332
sg5
F8.0
sg6
I12
sg7
F30.0
sg8
VRed
p333
sba(i__main__
player
p334
(dp335
g3
S'Medic'
p336
sg5
F14.0
sg6
I9
sg7
F0.0
sg8
VBlu
p337
sba(i__main__
player
p338
(dp339
g3
S'Medic'
p340
sg5
F28.0
sg6
I13
sg7
F2.0
sg8
VRed
p341
sba(i__main__
player
p342
(dp343
g3
S'Scout'
p344
sg5
F10.0
sg6
I30
sg7
F32.0
sg8
VRed
p345
sba(i__main__
player
p346
(dp347
g3
S'Soldier'
p348
sg5
F14.0
sg6
I14
sg7
F18.0
sg8
VBlu
p349
sba(i__main__
player
p350
(dp351
g3
S'Soldier'
p352
sg5
F4.0
sg6
I23
sg7
F25.0
sg8
VRed
p353
sba(i__main__
player
p354
(dp355
g3
S'Demoman'
p356
sg5
F4.0
sg6
I19
sg7
F18.0
sg8
VBlu
p357
sba(i__main__
player
p358
(dp359
g3
S'Medic'
p360
sg5
F24.0
sg6
I8
sg7
F0.0
sg8
VBlu
p361
sba(i__main__
player
p362
(dp363
g3
S'Medic'
p364
sg5
F10.0
sg6
I13
sg7
F1.0
sg8
VRed
p365
sba(i__main__
player
p366
(dp367
g3
S'Medic'
p368
sg5
F22.0
sg6
I18
sg7
F12.0
sg8
VRed
p369
sba(i__main__
player
p370
(dp371
g3
S'Soldier'
p372
sg5
F8.0
sg6
I23
sg7
F18.0
sg8
VRed
p373
sba(i__main__
player
p374
(dp375
g3
S'Medic'
p376
sg5
F9.0
sg6
I13
sg7
F5.0
sg8
VRed
p377
sba(i__main__
player
p378
(dp379
g3
S'Soldier'
p380
sg5
F7.0
sg6
I23
sg7
F14.0
sg8
VRed
p381
sba(i__main__
player
p382
(dp383
g3
S'Scout'
p384
sg5
F10.0
sg6
I22
sg7
F22.0
sg8
VRed
p385
sba(i__main__
player
p386
(dp387
g3
S'Medic'
p388
sg5
F11.0
sg6
I9
sg7
F2.0
sg8
VBlu
p389
sba(i__main__
player
p390
(dp391
g3
S'Soldier'
p392
sg5
F4.0
sg6
I14
sg7
F21.0
sg8
VRed
p393
sba(i__main__
player
p394
(dp395
g3
S'Scout'
p396
sg5
F10.0
sg6
I16
sg7
F29.0
sg8
VBlu
p397
sba(i__main__
player
p398
(dp399
g3
S'Scout'
p400
sg5
F5.0
sg6
I22
sg7
F33.0
sg8
VRed
p401
sba(i__main__
player
p402
(dp403
g3
S'Medic'
p404
sg5
F25.0
sg6
I9
sg7
F0.0
sg8
VRed
p405
sba(i__main__
player
p406
(dp407
g3
S'Soldier'
p408
sg5
F10.0
sg6
I20
sg7
F29.0
sg8
VBlu
p409
sba(i__main__
player
p410
(dp411
g3
S'Scout'
p412
sg5
F11.0
sg6
I23
sg7
F24.0
sg8
VBlu
p413
sba(i__main__
player
p414
(dp415
g3
S'Medic'
p416
sg5
F20.0
sg6
I15
sg7
F3.0
sg8
VBlu
p417
sba(i__main__
player
p418
(dp419
g3
S'Scout'
p420
sg5
F8.0
sg6
I29
sg7
F23.0
sg8
VRed
p421
sba(i__main__
player
p422
(dp423
g3
S'Medic'
p424
sg5
F22.0
sg6
I12
sg7
F3.0
sg8
VRed
p425
sba(i__main__
player
p426
(dp427
g3
S'Soldier'
p428
sg5
F11.0
sg6
I22
sg7
F19.0
sg8
VRed
p429
sba(i__main__
player
p430
(dp431
g3
S'Medic'
p432
sg5
F31.0
sg6
I12
sg7
F1.0
sg8
VRed
p433
sba(i__main__
player
p434
(dp435
g3
S'Scout'
p436
sg5
F4.0
sg6
I13
sg7
F11.0
sg8
VRed
p437
sba(i__main__
player
p438
(dp439
g3
S'Scout'
p440
sg5
F11.0
sg6
I28
sg7
F29.0
sg8
VBlu
p441
sba(i__main__
player
p442
(dp443
g3
S'Medic'
p444
sg5
F6.0
sg6
I15
sg7
F1.0
sg8
VBlu
p445
sba(i__main__
player
p446
(dp447
g3
S'Medic'
p448
sg5
F21.0
sg6
I15
sg7
F1.0
sg8
VBlu
p449
sba(i__main__
player
p450
(dp451
g3
S'Scout'
p452
sg5
F10.0
sg6
I26
sg7
F24.0
sg8
VBlu
p453
sba(i__main__
player
p454
(dp455
g3
S'Scout'
p456
sg5
F14.0
sg6
I24
sg7
F28.0
sg8
VBlu
p457
sba(i__main__
player
p458
(dp459
g3
S'Medic'
p460
sg5
F16.0
sg6
I8
sg7
F0.0
sg8
VBlu
p461
sba(i__main__
player
p462
(dp463
g3
S'Medic'
p464
sg5
F27.0
sg6
I4
sg7
F2.0
sg8
VRed
p465
sba(i__main__
player
p466
(dp467
g3
S'Medic'
p468
sg5
F15.0
sg6
I9
sg7
F2.0
sg8
VRed
p469
sba(i__main__
player
p470
(dp471
g3
S'Soldier'
p472
sg5
F9.0
sg6
I17
sg7
F23.0
sg8
VBlu
p473
sba(i__main__
player
p474
(dp475
g3
S'Scout'
p476
sg5
F7.0
sg6
I22
sg7
F26.0
sg8
VRed
p477
sba(i__main__
player
p478
(dp479
g3
S'Soldier'
p480
sg5
F4.0
sg6
I29
sg7
F12.0
sg8
VBlu
p481
sba(i__main__
player
p482
(dp483
g3
S'Soldier'
p484
sg5
F7.0
sg6
I19
sg7
F17.0
sg8
VBlu
p485
sba(i__main__
player
p486
(dp487
g3
S'Medic'
p488
sg5
F19.0
sg6
I16
sg7
F0.0
sg8
VRed
p489
sba(i__main__
player
p490
(dp491
g3
S'Soldier'
p492
sg5
F11.0
sg6
I21
sg7
F26.0
sg8
VBlu
p493
sba(i__main__
player
p494
(dp495
g3
S'Soldier'
p496
sg5
F10.0
sg6
I20
sg7
F31.0
sg8
VRed
p497
sba(i__main__
player
p498
(dp499
g3
S'Medic'
p500
sg5
F25.0
sg6
I13
sg7
F12.0
sg8
VBlu
p501
sba(i__main__
player
p502
(dp503
g3
S'Scout'
p504
sg5
F6.0
sg6
I20
sg7
F20.0
sg8
VBlu
p505
sba(i__main__
player
p506
(dp507
g3
S'Scout'
p508
sg5
F3.0
sg6
I17
sg7
F18.0
sg8
VRed
p509
sba(i__main__
player
p510
(dp511
g3
S'Medic'
p512
sg5
F18.0
sg6
I10
sg7
F0.0
sg8
VRed
p513
sba(i__main__
player
p514
(dp515
g3
S'Soldier'
p516
sg5
F3.0
sg6
I23
sg7
F16.0
sg8
VBlu
p517
sba(i__main__
player
p518
(dp519
g3
S'Scout'
p520
sg5
F7.0
sg6
I26
sg7
F29.0
sg8
VRed
p521
sba(i__main__
player
p522
(dp523
g3
S'Medic'
p524
sg5
F17.0
sg6
I22
sg7
F1.0
sg8
VBlu
p525
sba(i__main__
player
p526
(dp527
g3
S'Scout'
p528
sg5
F4.0
sg6
I19
sg7
F16.0
sg8
VRed
p529
sba(i__main__
player
p530
(dp531
g3
S'Scout'
p532
sg5
F10.0
sg6
I28
sg7
F19.0
sg8
VBlu
p533
sba(i__main__
player
p534
(dp535
g3
S'Medic'
p536
sg5
F16.0
sg6
I19
sg7
F4.0
sg8
VBlu
p537
sba(i__main__
player
p538
(dp539
g3
S'Medic'
p540
sg5
F25.0
sg6
I14
sg7
F0.0
sg8
VBlu
p541
sba(i__main__
player
p542
(dp543
g3
S'Medic'
p544
sg5
F18.0
sg6
I10
sg7
F0.0
sg8
VBlu
p545
sba(i__main__
player
p546
(dp547
g3
S'Scout'
p548
sg5
F11.0
sg6
I26
sg7
F21.0
sg8
VRed
p549
sba(i__main__
player
p550
(dp551
g3
S'Sniper'
p552
sg5
F11.0
sg6
I18
sg7
F17.0
sg8
VRed
p553
sba(i__main__
player
p554
(dp555
g3
S'Scout'
p556
sg5
F10.0
sg6
I26
sg7
F13.0
sg8
VBlu
p557
sba(i__main__
player
p558
(dp559
g3
S'Soldier'
p560
sg5
F8.0
sg6
I22
sg7
F12.0
sg8
VRed
p561
sba(i__main__
player
p562
(dp563
g3
S'Medic'
p564
sg5
F16.0
sg6
I11
sg7
F0.0
sg8
VRed
p565
sba(i__main__
player
p566
(dp567
g3
S'Medic'
p568
sg5
F16.0
sg6
I9
sg7
F1.0
sg8
VRed
p569
sba(i__main__
player
p570
(dp571
g3
S'Medic'
p572
sg5
F12.0
sg6
I12
sg7
F0.0
sg8
VBlu
p573
sba(i__main__
player
p574
(dp575
g3
S'Soldier'
p576
sg5
F8.0
sg6
I10
sg7
F30.0
sg8
VRed
p577
sba(i__main__
player
p578
(dp579
g3
S'Scout'
p580
sg5
F4.0
sg6
I23
sg7
F19.0
sg8
VRed
p581
sba(i__main__
player
p582
(dp583
g3
S'Scout'
p584
sg5
F4.0
sg6
I27
sg7
F27.0
sg8
VBlu
p585
sba(i__main__
player
p586
(dp587
g3
S'Medic'
p588
sg5
F17.0
sg6
I9
sg7
F1.0
sg8
VRed
p589
sba(i__main__
player
p590
(dp591
g3
S'Medic'
p592
sg5
F28.0
sg6
I15
sg7
F0.0
sg8
VRed
p593
sba(i__main__
player
p594
(dp595
g3
S'Scout'
p596
sg5
F6.0
sg6
I23
sg7
F14.0
sg8
VRed
p597
sba(i__main__
player
p598
(dp599
g3
S'Medic'
p600
sg5
F20.0
sg6
I7
sg7
F1.0
sg8
VBlu
p601
sba(i__main__
player
p602
(dp603
g3
S'Scout'
p604
sg5
F5.0
sg6
I23
sg7
F19.0
sg8
VRed
p605
sba(i__main__
player
p606
(dp607
g3
S'Scout'
p608
sg5
F5.0
sg6
I29
sg7
F14.0
sg8
VBlu
p609
sba(i__main__
player
p610
(dp611
g3
S'Medic'
p612
sg5
F19.0
sg6
I7
sg7
F4.0
sg8
VBlu
p613
sba(i__main__
player
p614
(dp615
g3
S'Scout'
p616
sg5
F13.0
sg6
I28
sg7
F23.0
sg8
VBlu
p617
sba(i__main__
player
p618
(dp619
g3
S'Medic'
p620
sg5
F31.0
sg6
I12
sg7
F0.0
sg8
VBlu
p621
sba(i__main__
player
p622
(dp623
g3
S'Medic'
p624
sg5
F11.0
sg6
I13
sg7
F0.0
sg8
VRed
p625
sba(i__main__
player
p626
(dp627
g3
S'Medic'
p628
sg5
F21.0
sg6
I14
sg7
F0.0
sg8
VRed
p629
sba(i__main__
player
p630
(dp631
g3
S'Scout'
p632
sg5
F13.0
sg6
I26
sg7
F24.0
sg8
VRed
p633
sba(i__main__
player
p634
(dp635
g3
S'Medic'
p636
sg5
F14.0
sg6
I15
sg7
F0.0
sg8
VBlu
p637
sba(i__main__
player
p638
(dp639
g3
S'Scout'
p640
sg5
F8.0
sg6
I22
sg7
F31.0
sg8
VBlu
p641
sba(i__main__
player
p642
(dp643
g3
S'Scout'
p644
sg5
F5.0
sg6
I25
sg7
F25.0
sg8
VRed
p645
sba(i__main__
player
p646
(dp647
g3
S'Medic'
p648
sg5
F7.0
sg6
I9
sg7
F0.0
sg8
VRed
p649
sba(i__main__
player
p650
(dp651
g3
S'Scout'
p652
sg5
F16.0
sg6
I23
sg7
F22.0
sg8
VRed
p653
sba(i__main__
player
p654
(dp655
g3
S'Scout'
p656
sg5
F5.0
sg6
I17
sg7
F10.0
sg8
VRed
p657
sba(i__main__
player
p658
(dp659
g3
S'Scout'
p660
sg5
F8.0
sg6
I26
sg7
F22.0
sg8
VBlu
p661
sba(i__main__
player
p662
(dp663
g3
S'Scout'
p664
sg5
F10.0
sg6
I20
sg7
F13.0
sg8
VRed
p665
sba(i__main__
player
p666
(dp667
g3
S'Medic'
p668
sg5
F20.0
sg6
I12
sg7
F1.0
sg8
VRed
p669
sba(i__main__
player
p670
(dp671
g3
S'Scout'
p672
sg5
F8.0
sg6
I22
sg7
F19.0
sg8
VBlu
p673
sba(i__main__
player
p674
(dp675
g3
S'Medic'
p676
sg5
F17.0
sg6
I11
sg7
F1.0
sg8
VBlu
p677
sba(i__main__
player
p678
(dp679
g3
S'Scout'
p680
sg5
F5.0
sg6
I28
sg7
F23.0
sg8
VRed
p681
sba(i__main__
player
p682
(dp683
g3
S'Medic'
p684
sg5
F19.0
sg6
I11
sg7
F0.0
sg8
VRed
p685
sba(i__main__
player
p686
(dp687
g3
S'Scout'
p688
sg5
F14.0
sg6
I24
sg7
F20.0
sg8
VRed
p689
sba(i__main__
player
p690
(dp691
g3
S'Medic'
p692
sg5
F11.0
sg6
I12
sg7
F0.0
sg8
VBlu
p693
sba(i__main__
player
p694
(dp695
g3
S'Scout'
p696
sg5
F4.0
sg6
I26
sg7
F19.0
sg8
VBlu
p697
sba(i__main__
player
p698
(dp699
g3
S'Scout'
p700
sg5
F6.0
sg6
I31
sg7
F14.0
sg8
VBlu
p701
sba(i__main__
player
p702
(dp703
g3
S'Scout'
p704
sg5
F4.0
sg6
I33
sg7
F21.0
sg8
VRed
p705
sba(i__main__
player
p706
(dp707
g3
S'Medic'
p708
sg5
F15.0
sg6
I10
sg7
F1.0
sg8
VRed
p709
sba(i__main__
player
p710
(dp711
g3
S'Scout'
p712
sg5
F12.0
sg6
I31
sg7
F27.0
sg8
VRed
p713
sba(i__main__
player
p714
(dp715
g3
S'Scout'
p716
sg5
F9.0
sg6
I30
sg7
F26.0
sg8
VRed
p717
sba(i__main__
player
p718
(dp719
g3
S'Scout'
p720
sg5
F13.0
sg6
I29
sg7
F28.0
sg8
VBlu
p721
sba(i__main__
player
p722
(dp723
g3
S'Scout'
p724
sg5
F7.0
sg6
I29
sg7
F15.0
sg8
VRed
p725
sba(i__main__
player
p726
(dp727
g3
S'Medic'
p728
sg5
F15.0
sg6
I16
sg7
F0.0
sg8
VRed
p729
sba(i__main__
player
p730
(dp731
g3
S'Medic'
p732
sg5
F21.0
sg6
I13
sg7
F4.0
sg8
VBlu
p733
sba(i__main__
player
p734
(dp735
g3
S'Scout'
p736
sg5
F7.0
sg6
I29
sg7
F30.0
sg8
VBlu
p737
sba(i__main__
player
p738
(dp739
g3
S'Medic'
p740
sg5
F14.0
sg6
I17
sg7
F1.0
sg8
VRed
p741
sba(i__main__
player
p742
(dp743
g3
S'Medic'
p744
sg5
F4.0
sg6
I11
sg7
F11.0
sg8
VRed
p745
sba(i__main__
player
p746
(dp747
g3
S'Scout'
p748
sg5
F8.0
sg6
I27
sg7
F32.0
sg8
VRed
p749
sba(i__main__
player
p750
(dp751
g3
S'Medic'
p752
sg5
F15.0
sg6
I10
sg7
F2.0
sg8
VRed
p753
sba(i__main__
player
p754
(dp755
g3
S'Soldier'
p756
sg5
F2.0
sg6
I22
sg7
F4.0
sg8
VRed
p757
sba(i__main__
player
p758
(dp759
g3
S'Soldier'
p760
sg5
F4.0
sg6
I20
sg7
F12.0
sg8
VBlu
p761
sba(i__main__
player
p762
(dp763
g3
S'Scout'
p764
sg5
F3.0
sg6
I24
sg7
F20.0
sg8
VBlu
p765
sba(i__main__
player
p766
(dp767
g3
S'Scout'
p768
sg5
F4.0
sg6
I31
sg7
F20.0
sg8
VRed
p769
sba(i__main__
player
p770
(dp771
g3
S'Medic'
p772
sg5
F15.0
sg6
I11
sg7
F0.0
sg8
VBlu
p773
sba(i__main__
player
p774
(dp775
g3
S'Scout'
p776
sg5
F11.0
sg6
I26
sg7
F27.0
sg8
VBlu
p777
sba(i__main__
player
p778
(dp779
g3
S'Scout'
p780
sg5
F8.0
sg6
I28
sg7
F29.0
sg8
VRed
p781
sba(i__main__
player
p782
(dp783
g3
S'Medic'
p784
sg5
F25.0
sg6
I10
sg7
F0.0
sg8
VRed
p785
sba(i__main__
player
p786
(dp787
g3
S'Scout'
p788
sg5
F11.0
sg6
I29
sg7
F17.0
sg8
VRed
p789
sba(i__main__
player
p790
(dp791
g3
S'Scout'
p792
sg5
F9.0
sg6
I35
sg7
F26.0
sg8
VBlu
p793
sba(i__main__
player
p794
(dp795
g3
S'Scout'
p796
sg5
F11.0
sg6
I22
sg7
F21.0
sg8
VRed
p797
sba(i__main__
player
p798
(dp799
g3
S'Medic'
p800
sg5
F21.0
sg6
I14
sg7
F0.0
sg8
VRed
p801
sba(i__main__
player
p802
(dp803
g3
S'Scout'
p804
sg5
F6.0
sg6
I16
sg7
F11.0
sg8
VBlu
p805
sba(i__main__
player
p806
(dp807
g3
S'Soldier'
p808
sg5
F9.0
sg6
I24
sg7
F20.0
sg8
VRed
p809
sba(i__main__
player
p810
(dp811
g3
S'Soldier'
p812
sg5
F4.0
sg6
I28
sg7
F15.0
sg8
VBlu
p813
sba(i__main__
player
p814
(dp815
g3
S'Scout'
p816
sg5
F8.0
sg6
I18
sg7
F15.0
sg8
VRed
p817
sba(i__main__
player
p818
(dp819
g3
S'Medic'
p820
sg5
F8.0
sg6
I11
sg7
F0.0
sg8
VBlu
p821
sba(i__main__
player
p822
(dp823
g3
S'Medic'
p824
sg5
F12.0
sg6
I16
sg7
F0.0
sg8
VRed
p825
sba(i__main__
player
p826
(dp827
g3
S'Scout'
p828
sg5
F12.0
sg6
I26
sg7
F26.0
sg8
VRed
p829
sba(i__main__
player
p830
(dp831
g3
S'Scout'
p832
sg5
F5.0
sg6
I21
sg7
F13.0
sg8
VRed
p833
sba(i__main__
player
p834
(dp835
g3
S'Medic'
p836
sg5
F17.0
sg6
I11
sg7
F0.0
sg8
VRed
p837
sba(i__main__
player
p838
(dp839
g3
S'Medic'
p840
sg5
F24.0
sg6
I17
sg7
F1.0
sg8
VBlu
p841
sba(i__main__
player
p842
(dp843
g3
S'Medic'
p844
sg5
F23.0
sg6
I11
sg7
F0.0
sg8
VRed
p845
sba(i__main__
player
p846
(dp847
g3
S'Scout'
p848
sg5
F7.0
sg6
I18
sg7
F10.0
sg8
VBlu
p849
sba(i__main__
player
p850
(dp851
g3
S'Scout'
p852
sg5
F9.0
sg6
I19
sg7
F16.0
sg8
VRed
p853
sba(i__main__
player
p854
(dp855
g3
S'Scout'
p856
sg5
F9.0
sg6
I26
sg7
F15.0
sg8
VBlu
p857
sba(i__main__
player
p858
(dp859
g3
S'Medic'
p860
sg5
F31.0
sg6
I23
sg7
F6.0
sg8
VRed
p861
sba(i__main__
player
p862
(dp863
g3
S'Medic'
p864
sg5
F28.0
sg6
I19
sg7
F1.0
sg8
VRed
p865
sba(i__main__
player
p866
(dp867
g3
S'Medic'
p868
sg5
F26.0
sg6
I13
sg7
F1.0
sg8
VRed
p869
sba(i__main__
player
p870
(dp871
g3
S'Scout'
p872
sg5
F6.0
sg6
I29
sg7
F15.0
sg8
VBlu
p873
sba(i__main__
player
p874
(dp875
g3
S'Medic'
p876
sg5
F17.0
sg6
I15
sg7
F5.0
sg8
VRed
p877
sba(i__main__
player
p878
(dp879
g3
S'Medic'
p880
sg5
F11.0
sg6
I11
sg7
F0.0
sg8
VBlu
p881
sba(i__main__
player
p882
(dp883
g3
S'Scout'
p884
sg5
F3.0
sg6
I28
sg7
F21.0
sg8
VBlu
p885
sba(i__main__
player
p886
(dp887
g3
S'Scout'
p888
sg5
F7.0
sg6
I35
sg7
F15.0
sg8
VBlu
p889
sba(i__main__
player
p890
(dp891
g3
S'Medic'
p892
sg5
F16.0
sg6
I13
sg7
F0.0
sg8
VBlu
p893
sba(i__main__
player
p894
(dp895
g3
S'Soldier'
p896
sg5
F7.0
sg6
I22
sg7
F16.0
sg8
VRed
p897
sba(i__main__
player
p898
(dp899
g3
S'Scout'
p900
sg5
F9.0
sg6
I35
sg7
F22.0
sg8
VRed
p901
sba(i__main__
player
p902
(dp903
g3
S'Soldier'
p904
sg5
F8.0
sg6
I19
sg7
F20.0
sg8
VRed
p905
sba(i__main__
player
p906
(dp907
g3
S'Scout'
p908
sg5
F15.0
sg6
I27
sg7
F6.0
sg8
VBlu
p909
sba(i__main__
player
p910
(dp911
g3
S'Medic'
p912
sg5
F4.0
sg6
I2
sg7
F0.0
sg8
VRed
p913
sba(i__main__
player
p914
(dp915
g3
S'Medic'
p916
sg5
F22.0
sg6
I9
sg7
F12.0
sg8
VBlu
p917
sba(i__main__
player
p918
(dp919
g3
S'Medic'
p920
sg5
F26.0
sg6
I18
sg7
F0.0
sg8
VBlu
p921
sba(i__main__
player
p922
(dp923
g3
S'Medic'
p924
sg5
F19.0
sg6
I23
sg7
F9.0
sg8
VRed
p925
sba(i__main__
player
p926
(dp927
g3
S'Medic'
p928
sg5
F0.0
sg6
I1
sg7
F0.0
sg8
VBlu
p929
sba.